; Function Attrs: mustprogress uwtable
define void @_ZN14VrmlTranslator7Scanner6NextChEv(ptr nocapture noundef nonnull align 8 dereferenceable(160) %0) local_unnamed_addr #2 align 2 {
  %2 = getelementptr inbounds i8, ptr %0, i64 144
  %3 = load i32, ptr %2, align 8
  %4 = icmp sgt i32 %3, 0
  br i1 %4, label %5, label %11

5:                                                ; preds = %1
  %6 = getelementptr inbounds i8, ptr %0, i64 32
  %7 = load i8, ptr %6, align 8
  %8 = zext i8 %7 to i32
  %9 = getelementptr inbounds i8, ptr %0, i64 128
  store i32 %8, ptr %9, align 8
  %10 = add nsw i32 %3, -1
  store i32 %10, ptr %2, align 8
  br label %49

11:                                               ; preds = %1
  %12 = getelementptr inbounds i8, ptr %0, i64 152
  %13 = load ptr, ptr %12, align 8
  %14 = load ptr, ptr %13, align 8
  %15 = getelementptr inbounds i8, ptr %14, i64 48
  %16 = load ptr, ptr %15, align 8
  %17 = tail call noundef i32 %16(ptr noundef nonnull align 8 dereferenceable(49) %13)
  %18 = getelementptr inbounds i8, ptr %0, i64 132
  store i32 %17, ptr %18, align 4
  %19 = load ptr, ptr %12, align 8
  %20 = load ptr, ptr %19, align 8
  %21 = getelementptr inbounds i8, ptr %20, i64 24
  %22 = load ptr, ptr %21, align 8
  %23 = tail call noundef i32 %22(ptr noundef nonnull align 8 dereferenceable(49) %19)
  %24 = getelementptr inbounds i8, ptr %0, i64 128
  store i32 %23, ptr %24, align 8
  %25 = getelementptr inbounds i8, ptr %0, i64 140
  %26 = load i32, ptr %25, align 4
  %27 = add nsw i32 %26, 1
  store i32 %27, ptr %25, align 4
  %28 = icmp eq i32 %23, 13
  br i1 %28, label %29, label %39

29:                                               ; preds = %11
  %30 = load ptr, ptr %12, align 8
  %31 = load ptr, ptr %30, align 8
  %32 = getelementptr inbounds i8, ptr %31, i64 32
  %33 = load ptr, ptr %32, align 8
  %34 = tail call noundef i32 %33(ptr noundef nonnull align 8 dereferenceable(49) %30)
  %.not = icmp eq i32 %34, 10
  br i1 %.not, label %._crit_edge, label %35

._crit_edge:                                      ; preds = %29
  %.pre = load i32, ptr %24, align 8
  br label %39

35:                                               ; preds = %29
  %36 = getelementptr inbounds i8, ptr %0, i64 32
  %37 = load i8, ptr %36, align 8
  %38 = zext i8 %37 to i32
  store i32 %38, ptr %24, align 8
  br label %39

39:                                               ; preds = %._crit_edge, %35, %11
  %40 = phi i32 [ %.pre, %._crit_edge ], [ %38, %35 ], [ %23, %11 ]
  %41 = getelementptr inbounds i8, ptr %0, i64 32
  %42 = load i8, ptr %41, align 8
  %43 = zext i8 %42 to i32
  %44 = icmp eq i32 %40, %43
  br i1 %44, label %45, label %49

45:                                               ; preds = %39
  %46 = getelementptr inbounds i8, ptr %0, i64 136
  %47 = load i32, ptr %46, align 8
  %48 = add nsw i32 %47, 1
  store i32 %48, ptr %46, align 8
  store i32 0, ptr %25, align 4
  br label %49

49:                                               ; preds = %39, %45, %5
  ret void
}